; Function Attrs: inlinehint mustprogress nounwind uwtable
define internal fastcc void @_ZSt8_DestroyIPN12_GLOBAL__N_111PatternInfoEEvT_S3_(ptr noundef readonly %0, ptr noundef readnone %1) unnamed_addr #4 personality ptr @__gxx_personality_v0 {
  %.not4.i = icmp eq ptr %0, %1
  br i1 %.not4.i, label %_ZNSt12_Destroy_auxILb0EE9__destroyIPN12_GLOBAL__N_111PatternInfoEEEvT_S5_.exit, label %.lr.ph.i

.lr.ph.i:                                         ; preds = %2, %_ZSt8_DestroyIN12_GLOBAL__N_111PatternInfoEEvPT_.exit.i
  %.05.i = phi ptr [ %16, %_ZSt8_DestroyIN12_GLOBAL__N_111PatternInfoEEvPT_.exit.i ], [ %0, %2 ]
  %3 = getelementptr inbounds nuw i8, ptr %.05.i, i64 40
  %4 = load ptr, ptr %3, align 8
  %5 = getelementptr inbounds nuw i8, ptr %.05.i, i64 56
  %6 = icmp eq ptr %4, %5
  br i1 %6, label %_ZNKSt7__cxx1112basic_stringIcSt11char_traitsIcESaIcEE11_M_is_localEv.exit.thread.i.i.i.i.i, label %_ZNKSt7__cxx1112basic_stringIcSt11char_traitsIcESaIcEE11_M_is_localEv.exit.i.i.i.i.i

_ZNKSt7__cxx1112basic_stringIcSt11char_traitsIcESaIcEE11_M_is_localEv.exit.thread.i.i.i.i.i: ; preds = %.lr.ph.i
  %7 = getelementptr inbounds nuw i8, ptr %.05.i, i64 48
  %8 = load i64, ptr %7, align 8
  %9 = icmp ult i64 %8, 16
  tail call void @llvm.assume(i1 %9)
  br label %_ZNSt7__cxx1112basic_stringIcSt11char_traitsIcESaIcEED2Ev.exit.i.i.i

_ZNKSt7__cxx1112basic_stringIcSt11char_traitsIcESaIcEE11_M_is_localEv.exit.i.i.i.i.i: ; preds = %.lr.ph.i
  tail call void @_ZdlPv(ptr noundef %4) #27
  br label %_ZNSt7__cxx1112basic_stringIcSt11char_traitsIcESaIcEED2Ev.exit.i.i.i

_ZNSt7__cxx1112basic_stringIcSt11char_traitsIcESaIcEED2Ev.exit.i.i.i: ; preds = %_ZNKSt7__cxx1112basic_stringIcSt11char_traitsIcESaIcEE11_M_is_localEv.exit.i.i.i.i.i, %_ZNKSt7__cxx1112basic_stringIcSt11char_traitsIcESaIcEE11_M_is_localEv.exit.thread.i.i.i.i.i
  %10 = load ptr, ptr %.05.i, align 8
  %11 = getelementptr inbounds nuw i8, ptr %.05.i, i64 16
  %12 = icmp eq ptr %10, %11
  br i1 %12, label %_ZNKSt7__cxx1112basic_stringIcSt11char_traitsIcESaIcEE11_M_is_localEv.exit.thread.i.i2.i.i.i, label %_ZNKSt7__cxx1112basic_stringIcSt11char_traitsIcESaIcEE11_M_is_localEv.exit.i.i1.i.i.i

_ZNKSt7__cxx1112basic_stringIcSt11char_traitsIcESaIcEE11_M_is_localEv.exit.thread.i.i2.i.i.i: ; preds = %_ZNSt7__cxx1112basic_stringIcSt11char_traitsIcESaIcEED2Ev.exit.i.i.i
  %13 = getelementptr inbounds nuw i8, ptr %.05.i, i64 8
  %14 = load i64, ptr %13, align 8
  %15 = icmp ult i64 %14, 16
  tail call void @llvm.assume(i1 %15)
  br label %_ZSt8_DestroyIN12_GLOBAL__N_111PatternInfoEEvPT_.exit.i

_ZNKSt7__cxx1112basic_stringIcSt11char_traitsIcESaIcEE11_M_is_localEv.exit.i.i1.i.i.i: ; preds = %_ZNSt7__cxx1112basic_stringIcSt11char_traitsIcESaIcEED2Ev.exit.i.i.i
  tail call void @_ZdlPv(ptr noundef %10) #27
  br label %_ZSt8_DestroyIN12_GLOBAL__N_111PatternInfoEEvPT_.exit.i

_ZSt8_DestroyIN12_GLOBAL__N_111PatternInfoEEvPT_.exit.i: ; preds = %_ZNKSt7__cxx1112basic_stringIcSt11char_traitsIcESaIcEE11_M_is_localEv.exit.i.i1.i.i.i, %_ZNKSt7__cxx1112basic_stringIcSt11char_traitsIcESaIcEE11_M_is_localEv.exit.thread.i.i2.i.i.i
  %16 = getelementptr inbounds nuw i8, ptr %.05.i, i64 80
  %.not.i = icmp eq ptr %16, %1
  br i1 %.not.i, label %_ZNSt12_Destroy_auxILb0EE9__destroyIPN12_GLOBAL__N_111PatternInfoEEEvT_S5_.exit, label %.lr.ph.i, !llvm.loop !99

_ZNSt12_Destroy_auxILb0EE9__destroyIPN12_GLOBAL__N_111PatternInfoEEEvT_S5_.exit: ; preds = %_ZSt8_DestroyIN12_GLOBAL__N_111PatternInfoEEvPT_.exit.i, %2
  ret void
}